; Function Attrs: nounwind sspstrong uwtable
define internal range(i64 1, 0) i64 @strscan_restsize(i64 noundef %0) #0 {
  tail call void (ptr, ...) @rb_warning(ptr noundef nonnull @.str.75) #12
  %2 = tail call ptr @rb_check_typeddata(i64 noundef %0, ptr noundef nonnull @strscanner_type) #12
  %3 = getelementptr inbounds nuw i8, ptr %2, i64 8
  %4 = load i64, ptr %3, align 8, !tbaa !23
  %5 = icmp eq i64 %4, 4
  br i1 %5, label %6, label %strscan_rest_size.exit

6:                                                ; preds = %1
  %7 = load i64, ptr @rb_eArgError, align 8, !tbaa !10
  tail call void (i64, ptr, ...) @rb_raise(i64 noundef %7, ptr noundef nonnull @.str.66) #14
  unreachable

strscan_rest_size.exit:                           ; preds = %1
  %8 = getelementptr inbounds nuw i8, ptr %2, i64 24
  %9 = load i64, ptr %8, align 8, !tbaa !29
  %10 = inttoptr i64 %4 to ptr
  %11 = getelementptr inbounds nuw i8, ptr %10, i64 16
  %12 = load i64, ptr %11, align 8, !tbaa !32
  %.not.i = icmp slt i64 %9, %12
  %13 = sub nsw i64 %12, %9
  %14 = shl i64 %13, 1
  %15 = or disjoint i64 %14, 1
  %.0.i = select i1 %.not.i, i64 %15, i64 1
  ret i64 %.0.i
}